target datalayout = "e-m:e-p270:32:32-p271:32:32-p272:64:64-i64:64-i128:128-f80:128-n8:16:32:64-S128"
target triple = "x86_64-pc-linux-gnu"

%struct.slurm_conf_t = type { i64, ptr, i16, ptr, ptr, ptr, ptr, ptr, i16, ptr, ptr, ptr, ptr, ptr, ptr, ptr, i16, ptr, ptr, ptr, ptr, i16, ptr, ptr, ptr, i64, ptr, ptr, ptr, ptr, i16, ptr, ptr, i16, i32, ptr, i32, ptr, i32, i32, ptr, ptr, i64, i64, ptr, i16, i16, ptr, i32, i32, ptr, i32, ptr, i32, i16, i16, i16, ptr, i16, i16, ptr, ptr, i32, i16, i16, ptr, i32, i16, ptr, ptr, ptr, ptr, i16, ptr, ptr, ptr, ptr, i32, ptr, ptr, ptr, ptr, i16, i16, ptr, i32, i32, i32, i16, i16, ptr, ptr, i16, ptr, ptr, i32, i32, i32, i32, i32, i64, i32, i32, i16, ptr, ptr, i32, ptr, ptr, ptr, i16, i32, ptr, ptr, i16, ptr, ptr, i32, i16, ptr, ptr, ptr, ptr, i32, i32, i16, i16, i32, ptr, i16, ptr, i32, i32, i32, i32, i32, i32, ptr, i16, ptr, ptr, i32, i16, ptr, i32, i16, i16, ptr, ptr, ptr, i16, ptr, ptr, ptr, ptr, i16, i16, ptr, i16, ptr, i16, ptr, i16, ptr, i16, ptr, ptr, ptr, ptr, i16, ptr, ptr, ptr, i32, ptr, i32, ptr, ptr, i16, ptr, ptr, i32, i16, ptr, ptr, i16, i16, ptr, i16, ptr, ptr, ptr, i32, ptr, i16, i16, ptr, ptr, ptr, ptr, ptr, ptr, ptr, ptr, i16, i32, i16, ptr, ptr, ptr, ptr, i32, ptr, ptr, ptr, i16, ptr, ptr, ptr, i16, ptr, i16, ptr, i16, i16, ptr }

@.str.160 = private unnamed_addr constant [9 x i8] c"affinity\00", align 1
@.str.161 = private unnamed_addr constant [7 x i8] c"cgroup\00", align 1
@.str.163 = private unnamed_addr constant [136 x i8] c"      --mem-bind=             Bind memory to locality domains (ldom)\0A                              (see \22--mem-bind=help\22 for options)\0A\00", align 1
@stdout = external global ptr, align 8
@.str.165 = private unnamed_addr constant [210 x i8] c"\0AHelp options:\0A  -h, --help                  show this help message\0A      --usage                 display brief usage message\0A\0AOther options:\0A  -V, --version               output version information and exit\0A\0A\00", align 1

; Function Attrs: nounwind uwtable
define internal void @_help() #0 {
  %1 = alloca ptr, align 8
  call void @llvm.lifetime.start.p0(i64 8, ptr %1) #9
  %2 = call ptr @slurm_conf_lock()
  store ptr %2, ptr %1, align 8
  %3 = call i32 (ptr, ...) @printf(ptr noundef @.str.159)
  %4 = load ptr, ptr %1, align 8
  %5 = getelementptr inbounds nuw %struct.slurm_conf_t, ptr %4, i32 0, i32 210
  %6 = load ptr, ptr %5, align 8
  %7 = call ptr @xstrstr(ptr noundef %6, ptr noundef @.str.160)
  %8 = icmp ne ptr %7, null
  br i1 %8, label %15, label %9

9:                                                ; preds = %0
  %10 = load ptr, ptr %1, align 8
  %11 = getelementptr inbounds nuw %struct.slurm_conf_t, ptr %10, i32 0, i32 210
  %12 = load ptr, ptr %11, align 8
  %13 = call ptr @xstrstr(ptr noundef %12, ptr noundef @.str.161)
  %14 = icmp ne ptr %13, null
  br i1 %14, label %15, label %17

15:                                               ; preds = %9, %0
  %16 = call i32 (ptr, ...) @printf(ptr noundef @.str.162)
  br label %17

17:                                               ; preds = %15, %9
  %18 = load ptr, ptr %1, align 8
  %19 = getelementptr inbounds nuw %struct.slurm_conf_t, ptr %18, i32 0, i32 210
  %20 = load ptr, ptr %19, align 8
  %21 = call ptr @xstrstr(ptr noundef %20, ptr noundef @.str.160)
  %22 = icmp ne ptr %21, null
  br i1 %22, label %23, label %25

23:                                               ; preds = %17
  %24 = call i32 (ptr, ...) @printf(ptr noundef @.str.163)
  br label %25

25:                                               ; preds = %23, %17
  call void @slurm_conf_unlock()
  %26 = load ptr, ptr @stdout, align 8
  call void @spank_print_options(ptr noundef %26, i32 noundef 6, i32 noundef 30)
  %27 = call i32 (ptr, ...) @printf(ptr noundef @.str.164)
  %28 = call i32 (ptr, ...) @printf(ptr noundef @.str.165)
  call void @llvm.lifetime.end.p0(i64 8, ptr %1) #9
  ret void
}