; Function Attrs: nounwind uwtable
define internal void @_help() #0 {
  %1 = tail call ptr @slurm_conf_lock() #17
  %puts = tail call i32 @puts(ptr nonnull dereferenceable(1) @str)
  %2 = getelementptr inbounds nuw i8, ptr %1, i64 1416
  %3 = load ptr, ptr %2, align 8
  %4 = tail call ptr @xstrstr(ptr noundef %3, ptr noundef nonnull @.str.160) #17
  %.not = icmp eq ptr %4, null
  br i1 %.not, label %5, label %8

5:                                                ; preds = %0
  %6 = load ptr, ptr %2, align 8
  %7 = tail call ptr @xstrstr(ptr noundef %6, ptr noundef nonnull @.str.161) #17
  %.not3 = icmp eq ptr %7, null
  br i1 %.not3, label %9, label %8

8:                                                ; preds = %5, %0
  %puts4 = tail call i32 @puts(ptr nonnull dereferenceable(1) @str.1)
  br label %9

9:                                                ; preds = %8, %5
  %10 = load ptr, ptr %2, align 8
  %11 = tail call ptr @xstrstr(ptr noundef %10, ptr noundef nonnull @.str.160) #17
  %.not5 = icmp eq ptr %11, null
  br i1 %.not5, label %13, label %12

12:                                               ; preds = %9
  %puts6 = tail call i32 @puts(ptr nonnull dereferenceable(1) @str.2)
  br label %13

13:                                               ; preds = %12, %9
  tail call void @slurm_conf_unlock() #17
  %14 = load ptr, ptr @stdout, align 8
  tail call void @spank_print_options(ptr noundef %14, i32 noundef 6, i32 noundef 30) #17
  %puts7 = tail call i32 @puts(ptr nonnull dereferenceable(1) @str.3)
  %puts8 = tail call i32 @puts(ptr nonnull dereferenceable(1) @str.4)
  ret void
}